target datalayout = "e-m:e-p270:32:32-p271:32:32-p272:64:64-i64:64-i128:128-f80:128-n8:16:32:64-S128"
target triple = "x86_64-pc-linux-gnu"

@hf_afp_pad = internal global i32 0, align 4
@hf_afp_did = internal global i32 0, align 4
@hf_afp_dt_ref = internal global i32 0, align 4
@hf_afp_file_creator = internal global i32 0, align 4
@hf_afp_appl_tag = internal global i32 0, align 4
@Vol = internal global i32 0, align 4
@Did = internal global i32 0, align 4
@.str.1065 = private unnamed_addr constant [9 x i8] c"Path: %s\00", align 1

; Function Attrs: null_pointer_is_valid sspstrong uwtable
define internal i32 @decode_name(ptr noundef %0, ptr noundef %1, ptr noundef %2, i32 noundef %3) #1 {
  %5 = alloca ptr, align 8
  %6 = alloca ptr, align 8
  %7 = alloca ptr, align 8
  %8 = alloca i32, align 4
  store ptr %0, ptr %5, align 8
  store ptr %1, ptr %6, align 8
  store ptr %2, ptr %7, align 8
  store i32 %3, ptr %8, align 4
  %9 = load ptr, ptr %5, align 8
  %10 = load ptr, ptr %6, align 8
  %11 = load ptr, ptr %7, align 8
  %12 = load i32, ptr %8, align 4
  %13 = call i32 @decode_name_label(ptr noundef %9, ptr noundef %10, ptr noundef %11, i32 noundef %12, ptr noundef @.str.1065, i1 noundef zeroext true)
  ret i32 %13
}

; Function Attrs: null_pointer_is_valid sspstrong uwtable
define internal i32 @decode_dt_did(ptr noundef %0, ptr noundef %1, i32 noundef %2) #1 {
  %4 = alloca ptr, align 8
  %5 = alloca ptr, align 8
  %6 = alloca i32, align 4
  store ptr %0, ptr %4, align 8
  store ptr %1, ptr %5, align 8
  store i32 %2, ptr %6, align 4
  %7 = load ptr, ptr %5, align 8
  %8 = load i32, ptr %6, align 4
  %9 = call zeroext i16 @tvb_get_ntohs(ptr noundef %7, i32 noundef %8)
  %10 = zext i16 %9 to i32
  store i32 %10, ptr @Vol, align 4
  %11 = load ptr, ptr %4, align 8
  %12 = load i32, ptr @hf_afp_dt_ref, align 4
  %13 = load ptr, ptr %5, align 8
  %14 = load i32, ptr %6, align 4
  %15 = call ptr @proto_tree_add_item(ptr noundef %11, i32 noundef %12, ptr noundef %13, i32 noundef %14, i32 noundef 2, i32 noundef 0)
  %16 = load i32, ptr %6, align 4
  %17 = add i32 %16, 2
  store i32 %17, ptr %6, align 4
  %18 = load ptr, ptr %5, align 8
  %19 = load i32, ptr %6, align 4
  %20 = call i32 @tvb_get_ntohl(ptr noundef %18, i32 noundef %19)
  store i32 %20, ptr @Did, align 4
  %21 = load ptr, ptr %4, align 8
  %22 = load i32, ptr @hf_afp_did, align 4
  %23 = load ptr, ptr %5, align 8
  %24 = load i32, ptr %6, align 4
  %25 = call ptr @proto_tree_add_item(ptr noundef %21, i32 noundef %22, ptr noundef %23, i32 noundef %24, i32 noundef 4, i32 noundef 0)
  %26 = load i32, ptr %6, align 4
  %27 = add i32 %26, 4
  store i32 %27, ptr %6, align 4
  %28 = load i32, ptr %6, align 4
  ret i32 %28
}

; Function Attrs: null_pointer_is_valid sspstrong uwtable
define internal i32 @dissect_query_afp_add_appl(ptr noundef %0, ptr noundef %1, ptr noundef %2, i32 noundef %3) #1 {
  %5 = alloca ptr, align 8
  %6 = alloca ptr, align 8
  %7 = alloca ptr, align 8
  %8 = alloca i32, align 4
  store ptr %0, ptr %5, align 8
  store ptr %1, ptr %6, align 8
  store ptr %2, ptr %7, align 8
  store i32 %3, ptr %8, align 4
  %9 = load ptr, ptr %7, align 8
  %10 = load i32, ptr @hf_afp_pad, align 4
  %11 = load ptr, ptr %5, align 8
  %12 = load i32, ptr %8, align 4
  %13 = call ptr @proto_tree_add_item(ptr noundef %9, i32 noundef %10, ptr noundef %11, i32 noundef %12, i32 noundef 1, i32 noundef 0)
  %14 = load i32, ptr %8, align 4
  %15 = add i32 %14, 1
  store i32 %15, ptr %8, align 4
  %16 = load ptr, ptr %7, align 8
  %17 = load ptr, ptr %5, align 8
  %18 = load i32, ptr %8, align 4
  %19 = call i32 @decode_dt_did(ptr noundef %16, ptr noundef %17, i32 noundef %18)
  store i32 %19, ptr %8, align 4
  %20 = load ptr, ptr %7, align 8
  %21 = load i32, ptr @hf_afp_file_creator, align 4
  %22 = load ptr, ptr %5, align 8
  %23 = load i32, ptr %8, align 4
  %24 = call ptr @proto_tree_add_item(ptr noundef %20, i32 noundef %21, ptr noundef %22, i32 noundef %23, i32 noundef 4, i32 noundef 0)
  %25 = load i32, ptr %8, align 4
  %26 = add i32 %25, 4
  store i32 %26, ptr %8, align 4
  %27 = load ptr, ptr %7, align 8
  %28 = load i32, ptr @hf_afp_appl_tag, align 4
  %29 = load ptr, ptr %5, align 8
  %30 = load i32, ptr %8, align 4
  %31 = call ptr @proto_tree_add_item(ptr noundef %27, i32 noundef %28, ptr noundef %29, i32 noundef %30, i32 noundef 4, i32 noundef 0)
  %32 = load i32, ptr %8, align 4
  %33 = add i32 %32, 4
  store i32 %33, ptr %8, align 4
  %34 = load ptr, ptr %7, align 8
  %35 = load ptr, ptr %6, align 8
  %36 = load ptr, ptr %5, align 8
  %37 = load i32, ptr %8, align 4
  %38 = call i32 @decode_name(ptr noundef %34, ptr noundef %35, ptr noundef %36, i32 noundef %37)
  store i32 %38, ptr %8, align 4
  %39 = load i32, ptr %8, align 4
  ret i32 %39
}